target datalayout = "e-m:e-p270:32:32-p271:32:32-p272:64:64-i64:64-i128:128-f80:128-n8:16:32:64-S128"
target triple = "x86_64-pc-linux-gnu"

; Function Attrs: nounwind uwtable
define internal i32 @range_should_be_prefix(ptr noundef %0, ptr noundef %1, i32 noundef %2) #0 {
  %4 = alloca i32, align 4
  %5 = alloca ptr, align 8
  %6 = alloca ptr, align 8
  %7 = alloca i32, align 4
  %8 = alloca i8, align 1
  %9 = alloca i32, align 4
  %10 = alloca i32, align 4
  %11 = alloca i32, align 4
  store ptr %0, ptr %5, align 8, !tbaa !45
  store ptr %1, ptr %6, align 8, !tbaa !45
  store i32 %2, ptr %7, align 4, !tbaa !37
  call void @llvm.lifetime.start.p0(i64 1, ptr %8) #9
  call void @llvm.lifetime.start.p0(i64 4, ptr %9) #9
  call void @llvm.lifetime.start.p0(i64 4, ptr %10) #9
  store i32 0, ptr %9, align 4, !tbaa !37
  br label %12

12:                                               ; preds = %33, %3
  %13 = load i32, ptr %9, align 4, !tbaa !37
  %14 = load i32, ptr %7, align 4, !tbaa !37
  %15 = icmp slt i32 %13, %14
  br i1 %15, label %16, label %30

16:                                               ; preds = %12
  %17 = load ptr, ptr %5, align 8, !tbaa !45
  %18 = load i32, ptr %9, align 4, !tbaa !37
  %19 = sext i32 %18 to i64
  %20 = getelementptr inbounds i8, ptr %17, i64 %19
  %21 = load i8, ptr %20, align 1, !tbaa !34
  %22 = zext i8 %21 to i32
  %23 = load ptr, ptr %6, align 8, !tbaa !45
  %24 = load i32, ptr %9, align 4, !tbaa !37
  %25 = sext i32 %24 to i64
  %26 = getelementptr inbounds i8, ptr %23, i64 %25
  %27 = load i8, ptr %26, align 1, !tbaa !34
  %28 = zext i8 %27 to i32
  %29 = icmp eq i32 %22, %28
  br label %30

30:                                               ; preds = %16, %12
  %31 = phi i1 [ false, %12 ], [ %29, %16 ]
  br i1 %31, label %32, label %36

32:                                               ; preds = %30
  br label %33

33:                                               ; preds = %32
  %34 = load i32, ptr %9, align 4, !tbaa !37
  %35 = add nsw i32 %34, 1
  store i32 %35, ptr %9, align 4, !tbaa !37
  br label %12, !llvm.loop !63

36:                                               ; preds = %30
  %37 = load i32, ptr %7, align 4, !tbaa !37
  %38 = sub nsw i32 %37, 1
  store i32 %38, ptr %10, align 4, !tbaa !37
  br label %39

39:                                               ; preds = %61, %36
  %40 = load i32, ptr %10, align 4, !tbaa !37
  %41 = icmp sge i32 %40, 0
  br i1 %41, label %42, label %58

42:                                               ; preds = %39
  %43 = load ptr, ptr %5, align 8, !tbaa !45
  %44 = load i32, ptr %10, align 4, !tbaa !37
  %45 = sext i32 %44 to i64
  %46 = getelementptr inbounds i8, ptr %43, i64 %45
  %47 = load i8, ptr %46, align 1, !tbaa !34
  %48 = zext i8 %47 to i32
  %49 = icmp eq i32 %48, 0
  br i1 %49, label %50, label %58

50:                                               ; preds = %42
  %51 = load ptr, ptr %6, align 8, !tbaa !45
  %52 = load i32, ptr %10, align 4, !tbaa !37
  %53 = sext i32 %52 to i64
  %54 = getelementptr inbounds i8, ptr %51, i64 %53
  %55 = load i8, ptr %54, align 1, !tbaa !34
  %56 = zext i8 %55 to i32
  %57 = icmp eq i32 %56, 255
  br label %58

58:                                               ; preds = %50, %42, %39
  %59 = phi i1 [ false, %42 ], [ false, %39 ], [ %57, %50 ]
  br i1 %59, label %60, label %64

60:                                               ; preds = %58
  br label %61

61:                                               ; preds = %60
  %62 = load i32, ptr %10, align 4, !tbaa !37
  %63 = add nsw i32 %62, -1
  store i32 %63, ptr %10, align 4, !tbaa !37
  br label %39, !llvm.loop !64

64:                                               ; preds = %58
  %65 = load i32, ptr %9, align 4, !tbaa !37
  %66 = load i32, ptr %10, align 4, !tbaa !37
  %67 = icmp slt i32 %65, %66
  br i1 %67, label %68, label %69

68:                                               ; preds = %64
  store i32 -1, ptr %4, align 4
  store i32 1, ptr %11, align 4
  br label %131

69:                                               ; preds = %64
  %70 = load i32, ptr %9, align 4, !tbaa !37
  %71 = load i32, ptr %10, align 4, !tbaa !37
  %72 = icmp sgt i32 %70, %71
  br i1 %72, label %73, label %76

73:                                               ; preds = %69
  %74 = load i32, ptr %9, align 4, !tbaa !37
  %75 = mul nsw i32 %74, 8
  store i32 %75, ptr %4, align 4
  store i32 1, ptr %11, align 4
  br label %131

76:                                               ; preds = %69
  %77 = load ptr, ptr %5, align 8, !tbaa !45
  %78 = load i32, ptr %9, align 4, !tbaa !37
  %79 = sext i32 %78 to i64
  %80 = getelementptr inbounds i8, ptr %77, i64 %79
  %81 = load i8, ptr %80, align 1, !tbaa !34
  %82 = zext i8 %81 to i32
  %83 = load ptr, ptr %6, align 8, !tbaa !45
  %84 = load i32, ptr %9, align 4, !tbaa !37
  %85 = sext i32 %84 to i64
  %86 = getelementptr inbounds i8, ptr %83, i64 %85
  %87 = load i8, ptr %86, align 1, !tbaa !34
  %88 = zext i8 %87 to i32
  %89 = xor i32 %82, %88
  %90 = trunc i32 %89 to i8
  store i8 %90, ptr %8, align 1, !tbaa !34
  %91 = load i8, ptr %8, align 1, !tbaa !34
  %92 = zext i8 %91 to i32
  switch i32 %92, label %100 [
    i32 1, label %93
    i32 3, label %94
    i32 7, label %95
    i32 15, label %96
    i32 31, label %97
    i32 63, label %98
    i32 127, label %99
  ]

93:                                               ; preds = %76
  store i32 7, ptr %10, align 4, !tbaa !37
  br label %101

94:                                               ; preds = %76
  store i32 6, ptr %10, align 4, !tbaa !37
  br label %101

95:                                               ; preds = %76
  store i32 5, ptr %10, align 4, !tbaa !37
  br label %101

96:                                               ; preds = %76
  store i32 4, ptr %10, align 4, !tbaa !37
  br label %101

97:                                               ; preds = %76
  store i32 3, ptr %10, align 4, !tbaa !37
  br label %101

98:                                               ; preds = %76
  store i32 2, ptr %10, align 4, !tbaa !37
  br label %101

99:                                               ; preds = %76
  store i32 1, ptr %10, align 4, !tbaa !37
  br label %101

100:                                              ; preds = %76
  store i32 -1, ptr %4, align 4
  store i32 1, ptr %11, align 4
  br label %131

101:                                              ; preds = %99, %98, %97, %96, %95, %94, %93
  %102 = load ptr, ptr %5, align 8, !tbaa !45
  %103 = load i32, ptr %9, align 4, !tbaa !37
  %104 = sext i32 %103 to i64
  %105 = getelementptr inbounds i8, ptr %102, i64 %104
  %106 = load i8, ptr %105, align 1, !tbaa !34
  %107 = zext i8 %106 to i32
  %108 = load i8, ptr %8, align 1, !tbaa !34
  %109 = zext i8 %108 to i32
  %110 = and i32 %107, %109
  %111 = icmp ne i32 %110, 0
  br i1 %111, label %125, label %112

112:                                              ; preds = %101
  %113 = load ptr, ptr %6, align 8, !tbaa !45
  %114 = load i32, ptr %9, align 4, !tbaa !37
  %115 = sext i32 %114 to i64
  %116 = getelementptr inbounds i8, ptr %113, i64 %115
  %117 = load i8, ptr %116, align 1, !tbaa !34
  %118 = zext i8 %117 to i32
  %119 = load i8, ptr %8, align 1, !tbaa !34
  %120 = zext i8 %119 to i32
  %121 = and i32 %118, %120
  %122 = load i8, ptr %8, align 1, !tbaa !34
  %123 = zext i8 %122 to i32
  %124 = icmp ne i32 %121, %123
  br i1 %124, label %125, label %126

125:                                              ; preds = %112, %101
  store i32 -1, ptr %4, align 4
  store i32 1, ptr %11, align 4
  br label %131

126:                                              ; preds = %112
  %127 = load i32, ptr %9, align 4, !tbaa !37
  %128 = mul nsw i32 %127, 8
  %129 = load i32, ptr %10, align 4, !tbaa !37
  %130 = add nsw i32 %128, %129
  store i32 %130, ptr %4, align 4
  store i32 1, ptr %11, align 4
  br label %131

131:                                              ; preds = %126, %125, %100, %73, %68
  call void @llvm.lifetime.end.p0(i64 4, ptr %10) #9
  call void @llvm.lifetime.end.p0(i64 4, ptr %9) #9
  call void @llvm.lifetime.end.p0(i64 1, ptr %8) #9
  %132 = load i32, ptr %4, align 4
  ret i32 %132
}