; Function Attrs: nofree norecurse nosync nounwind memory(argmem: read) uwtable
define internal fastcc i32 @range_should_be_prefix(ptr noundef readonly captures(none) %0, ptr noundef readonly captures(none) %1, i32 noundef range(i32 0, 17) %2) unnamed_addr #8 {
  %.not42 = icmp eq i32 %2, 0
  br i1 %.not42, label %.critedge, label %.lr.ph.preheader

.lr.ph.preheader:                                 ; preds = %3
  %wide.trip.count = zext nneg i32 %2 to i64
  br label %.lr.ph

.lr.ph:                                           ; preds = %.lr.ph.preheader, %9
  %indvars.iv = phi i64 [ 0, %.lr.ph.preheader ], [ %indvars.iv.next, %9 ]
  %4 = getelementptr inbounds nuw i8, ptr %0, i64 %indvars.iv
  %5 = load i8, ptr %4, align 1, !tbaa !16
  %6 = getelementptr inbounds nuw i8, ptr %1, i64 %indvars.iv
  %7 = load i8, ptr %6, align 1, !tbaa !16
  %8 = icmp eq i8 %5, %7
  br i1 %8, label %9, label %.critedge.loopexit.split.loop.exit47

9:                                                ; preds = %.lr.ph
  %indvars.iv.next = add nuw nsw i64 %indvars.iv, 1
  %exitcond.not = icmp eq i64 %indvars.iv.next, %wide.trip.count
  br i1 %exitcond.not, label %.critedge, label %.lr.ph, !llvm.loop !27

.critedge.loopexit.split.loop.exit47:             ; preds = %.lr.ph
  %10 = trunc nuw nsw i64 %indvars.iv to i32
  br label %.critedge

.critedge:                                        ; preds = %9, %.critedge.loopexit.split.loop.exit47, %3
  %.pre-phi = phi i64 [ 0, %3 ], [ %wide.trip.count, %.critedge.loopexit.split.loop.exit47 ], [ %wide.trip.count, %9 ]
  %.035.lcssa = phi i32 [ 0, %3 ], [ %10, %.critedge.loopexit.split.loop.exit47 ], [ %2, %9 ]
  br label %11

11:                                               ; preds = %17, %.critedge
  %indvars.iv44 = phi i64 [ %indvars.iv.next45, %17 ], [ %.pre-phi, %.critedge ]
  %indvars.iv.next45 = add nsw i64 %indvars.iv44, -1
  %12 = icmp sgt i64 %indvars.iv44, 0
  br i1 %12, label %13, label %.critedge2

13:                                               ; preds = %11
  %14 = getelementptr inbounds nuw i8, ptr %0, i64 %indvars.iv.next45
  %15 = load i8, ptr %14, align 1, !tbaa !16
  %16 = icmp eq i8 %15, 0
  br i1 %16, label %17, label %.critedge2.split.loop.exit

17:                                               ; preds = %13
  %18 = getelementptr inbounds nuw i8, ptr %1, i64 %indvars.iv.next45
  %19 = load i8, ptr %18, align 1, !tbaa !16
  %20 = icmp eq i8 %19, -1
  br i1 %20, label %11, label %.critedge2.split.loop.exit52, !llvm.loop !28

.critedge2.split.loop.exit:                       ; preds = %13
  %21 = trunc nsw i64 %indvars.iv.next45 to i32
  %22 = trunc nuw nsw i64 %indvars.iv44 to i32
  br label %.critedge2

.critedge2.split.loop.exit52:                     ; preds = %17
  %23 = trunc nsw i64 %indvars.iv.next45 to i32
  %24 = trunc nuw nsw i64 %indvars.iv44 to i32
  br label %.critedge2

.critedge2:                                       ; preds = %11, %.critedge2.split.loop.exit52, %.critedge2.split.loop.exit
  %.0.in.lcssa = phi i32 [ %22, %.critedge2.split.loop.exit ], [ %24, %.critedge2.split.loop.exit52 ], [ 0, %11 ]
  %.0.lcssa = phi i32 [ %21, %.critedge2.split.loop.exit ], [ %23, %.critedge2.split.loop.exit52 ], [ -1, %11 ]
  %25 = icmp slt i32 %.035.lcssa, %.0.lcssa
  br i1 %25, label %48, label %26

26:                                               ; preds = %.critedge2
  %.not = icmp slt i32 %.035.lcssa, %.0.in.lcssa
  br i1 %.not, label %29, label %27

27:                                               ; preds = %26
  %28 = shl nsw i32 %.035.lcssa, 3
  br label %48

29:                                               ; preds = %26
  %30 = zext nneg i32 %.035.lcssa to i64
  %31 = getelementptr inbounds nuw i8, ptr %0, i64 %30
  %32 = load i8, ptr %31, align 1, !tbaa !16
  %33 = getelementptr inbounds nuw i8, ptr %1, i64 %30
  %34 = load i8, ptr %33, align 1, !tbaa !16
  %35 = xor i8 %34, %32
  switch i8 %35, label %48 [
    i8 1, label %42
    i8 3, label %36
    i8 7, label %37
    i8 15, label %38
    i8 31, label %39
    i8 63, label %40
    i8 127, label %41
  ]

36:                                               ; preds = %29
  br label %42

37:                                               ; preds = %29
  br label %42

38:                                               ; preds = %29
  br label %42

39:                                               ; preds = %29
  br label %42

40:                                               ; preds = %29
  br label %42

41:                                               ; preds = %29
  br label %42

42:                                               ; preds = %29, %41, %40, %39, %38, %37, %36
  %.1 = phi i32 [ 1, %41 ], [ 2, %40 ], [ 3, %39 ], [ 4, %38 ], [ 5, %37 ], [ 6, %36 ], [ 7, %29 ]
  %43 = and i8 %35, %32
  %.not37 = icmp eq i8 %43, 0
  %44 = and i8 %35, %34
  %.not38 = icmp eq i8 %44, %35
  %or.cond = and i1 %.not37, %.not38
  br i1 %or.cond, label %45, label %48

45:                                               ; preds = %42
  %46 = shl nsw i32 %.035.lcssa, 3
  %47 = or disjoint i32 %.1, %46
  br label %48

48:                                               ; preds = %42, %29, %.critedge2, %45, %27
  %.036 = phi i32 [ %28, %27 ], [ %47, %45 ], [ -1, %.critedge2 ], [ -1, %29 ], [ -1, %42 ]
  ret i32 %.036
}